; ModuleID = '6/997.c'
source_filename = "6/997.c"
target datalayout = "e-m:e-p270:32:32-p271:32:32-p272:64:64-i64:64-f80:128-n8:16:32:64-S128"
target triple = "x86_64-pc-linux-gnu"

@.str = private unnamed_addr constant [3 x i8] c"%d\00", align 1
@.str.1 = private unnamed_addr constant [6 x i8] c"%d %d\00", align 1
@.str.2 = private unnamed_addr constant [4 x i8] c"%d\0A\00", align 1

; Function Attrs: noinline nounwind uwtable
define dso_local i32 @main() #0 {
  %1 = alloca i32, align 4
  %2 = alloca i32, align 4
  %3 = alloca i32, align 4
  %4 = alloca i32, align 4
  %5 = alloca i32, align 4
  %6 = alloca i32, align 4
  %7 = alloca i32, align 4
  %8 = alloca i32, align 4
  %9 = alloca i32, align 4
  %10 = alloca i32, align 4
  %11 = alloca [500 x [500 x i32]], align 16
  store i32 0, i32* %1, align 4
  %12 = call i32 (i8*, ...) @__isoc99_scanf(i8* getelementptr inbounds ([3 x i8], [3 x i8]* @.str, i64 0, i64 0), i32* %9)
  store i32 0, i32* %6, align 4
  store i32 0, i32* %8, align 4
  br label %13

13:                                               ; preds = %94, %0
  %14 = load i32, i32* %8, align 4
  %15 = load i32, i32* %9, align 4
  %16 = icmp slt i32 %14, %15
  br i1 %16, label %17, label %97

17:                                               ; preds = %13
  %18 = call i32 (i8*, ...) @__isoc99_scanf(i8* getelementptr inbounds ([6 x i8], [6 x i8]* @.str.1, i64 0, i64 0), i32* %6, i32* %2)
  store i32 0, i32* %10, align 4
  store i32 0, i32* %4, align 4
  br label %19

19:                                               ; preds = %49, %17
  %20 = load i32, i32* %4, align 4
  %21 = load i32, i32* %6, align 4
  %22 = icmp slt i32 %20, %21
  br i1 %22, label %23, label %52

23:                                               ; preds = %19
  store i32 0, i32* %3, align 4
  br label %24

24:                                               ; preds = %45, %23
  %25 = load i32, i32* %3, align 4
  %26 = load i32, i32* %2, align 4
  %27 = icmp slt i32 %25, %26
  br i1 %27, label %28, label %48

28:                                               ; preds = %24
  %29 = load i32, i32* %4, align 4
  %30 = sext i32 %29 to i64
  %31 = getelementptr inbounds [500 x [500 x i32]], [500 x [500 x i32]]* %11, i64 0, i64 %30
  %32 = load i32, i32* %3, align 4
  %33 = sext i32 %32 to i64
  %34 = getelementptr inbounds [500 x i32], [500 x i32]* %31, i64 0, i64 %33
  %35 = call i32 (i8*, ...) @__isoc99_scanf(i8* getelementptr inbounds ([3 x i8], [3 x i8]* @.str, i64 0, i64 0), i32* %34)
  %36 = load i32, i32* %4, align 4
  %37 = sext i32 %36 to i64
  %38 = getelementptr inbounds [500 x [500 x i32]], [500 x [500 x i32]]* %11, i64 0, i64 %37
  %39 = load i32, i32* %3, align 4
  %40 = sext i32 %39 to i64
  %41 = getelementptr inbounds [500 x i32], [500 x i32]* %38, i64 0, i64 %40
  %42 = load i32, i32* %41, align 4
  %43 = load i32, i32* %10, align 4
  %44 = add nsw i32 %43, %42
  store i32 %44, i32* %10, align 4
  br label %45

45:                                               ; preds = %28
  %46 = load i32, i32* %3, align 4
  %47 = add nsw i32 %46, 1
  store i32 %47, i32* %3, align 4
  br label %24

48:                                               ; preds = %24
  br label %49

49:                                               ; preds = %48
  %50 = load i32, i32* %4, align 4
  %51 = add nsw i32 %50, 1
  store i32 %51, i32* %4, align 4
  br label %19

52:                                               ; preds = %19
  %53 = load i32, i32* %6, align 4
  %54 = icmp eq i32 %53, 1
  br i1 %54, label %58, label %55

55:                                               ; preds = %52
  %56 = load i32, i32* %2, align 4
  %57 = icmp eq i32 %56, 1
  br i1 %57, label %58, label %61

58:                                               ; preds = %55, %52
  %59 = load i32, i32* %10, align 4
  %60 = call i32 (i8*, ...) @printf(i8* getelementptr inbounds ([4 x i8], [4 x i8]* @.str.2, i64 0, i64 0), i32 %59)
  br label %93

61:                                               ; preds = %55
  store i32 1, i32* %4, align 4
  br label %62

62:                                               ; preds = %87, %61
  %63 = load i32, i32* %4, align 4
  %64 = load i32, i32* %6, align 4
  %65 = sub nsw i32 %64, 2
  %66 = icmp sle i32 %63, %65
  br i1 %66, label %67, label %90

67:                                               ; preds = %62
  store i32 1, i32* %3, align 4
  br label %68

68:                                               ; preds = %83, %67
  %69 = load i32, i32* %3, align 4
  %70 = load i32, i32* %2, align 4
  %71 = sub nsw i32 %70, 2
  %72 = icmp sle i32 %69, %71
  br i1 %72, label %73, label %86

73:                                               ; preds = %68
  %74 = load i32, i32* %10, align 4
  %75 = load i32, i32* %4, align 4
  %76 = sext i32 %75 to i64
  %77 = getelementptr inbounds [500 x [500 x i32]], [500 x [500 x i32]]* %11, i64 0, i64 %76
  %78 = load i32, i32* %3, align 4
  %79 = sext i32 %78 to i64
  %80 = getelementptr inbounds [500 x i32], [500 x i32]* %77, i64 0, i64 %79
  %81 = load i32, i32* %80, align 4
  %82 = sub nsw i32 %74, %81
  store i32 %82, i32* %10, align 4
  br label %83

83:                                               ; preds = %73
  %84 = load i32, i32* %3, align 4
  %85 = add nsw i32 %84, 1
  store i32 %85, i32* %3, align 4
  br label %68

86:                                               ; preds = %68
  br label %87

87:                                               ; preds = %86
  %88 = load i32, i32* %4, align 4
  %89 = add nsw i32 %88, 1
  store i32 %89, i32* %4, align 4
  br label %62

90:                                               ; preds = %62
  %91 = load i32, i32* %10, align 4
  %92 = call i32 (i8*, ...) @printf(i8* getelementptr inbounds ([4 x i8], [4 x i8]* @.str.2, i64 0, i64 0), i32 %91)
  br label %93

93:                                               ; preds = %90, %58
  br label %94

94:                                               ; preds = %93
  %95 = load i32, i32* %8, align 4
  %96 = add nsw i32 %95, 1
  store i32 %96, i32* %8, align 4
  br label %13

97:                                               ; preds = %13
  ret i32 0
}

declare dso_local i32 @__isoc99_scanf(i8*, ...) #1

declare dso_local i32 @printf(i8*, ...) #1


!llvm.module.flags = !{!0}
!llvm.ident = !{!1}

!0 = !{i32 1, !"wchar_size", i32 4}
!1 = !{!"clang version 10.0.0-4ubuntu1 "}
